; Function Attrs: mustprogress uwtable
define void @_ZNK10open_spiel10kuhn_poker8KuhnGame15NewInitialStateEv(ptr dead_on_unwind noalias nocapture writable writeonly sret(%"class.std::unique_ptr") align 8 %0, ptr nocapture noundef nonnull readonly align 8 dereferenceable(348) %1) unnamed_addr #3 align 2 personality ptr @__gxx_personality_v0 {
  %3 = alloca %"class.std::shared_ptr", align 8
  %4 = tail call noalias noundef nonnull dereferenceable(120) ptr @_Znwm(i64 noundef 120) #29
  %5 = getelementptr inbounds i8, ptr %1, i64 8
  tail call void @llvm.experimental.noalias.scope.decl(metadata !36)
  %6 = getelementptr inbounds nuw i8, ptr %3, i64 8
  %7 = getelementptr inbounds i8, ptr %1, i64 16
  %8 = load ptr, ptr %7, align 8, !noalias !36
  store ptr %8, ptr %6, align 8, !alias.scope !36
  %9 = icmp eq ptr %8, null
  br i1 %9, label %_ZNSt16_Sp_counted_baseILN9__gnu_cxx12_Lock_policyE2EE23_M_add_ref_lock_nothrowEv.exit.i.i.i.i, label %10

10:                                               ; preds = %2
  %11 = getelementptr inbounds nuw i8, ptr %8, i64 8
  %12 = load atomic i32, ptr %11 monotonic, align 8, !noalias !36
  br label %13

13:                                               ; preds = %14, %10
  %.06.i.i.i.i.i = phi i32 [ %12, %10 ], [ %18, %14 ]
  %.not.not.not.i.not.i.i.i.i = icmp eq i32 %.06.i.i.i.i.i, 0
  br i1 %.not.not.not.i.not.i.i.i.i, label %_ZNSt16_Sp_counted_baseILN9__gnu_cxx12_Lock_policyE2EE23_M_add_ref_lock_nothrowEv.exit.i.i.i.i, label %14

14:                                               ; preds = %13
  %15 = add nsw i32 %.06.i.i.i.i.i, 1
  %16 = cmpxchg weak ptr %11, i32 %.06.i.i.i.i.i, i32 %15 acq_rel monotonic, align 8, !noalias !36
  %17 = extractvalue { i32, i1 } %16, 1
  %18 = extractvalue { i32, i1 } %16, 0
  br i1 %17, label %20, label %13, !llvm.loop !39

_ZNSt16_Sp_counted_baseILN9__gnu_cxx12_Lock_policyE2EE23_M_add_ref_lock_nothrowEv.exit.i.i.i.i: ; preds = %13, %2
  %19 = tail call ptr @__cxa_allocate_exception(i64 8) #27, !noalias !36
  store ptr getelementptr inbounds inrange(-16, 24) (i8, ptr @_ZTVSt12bad_weak_ptr, i64 16), ptr %19, align 8, !noalias !36
  invoke void @__cxa_throw(ptr nonnull %19, ptr nonnull @_ZTISt12bad_weak_ptr, ptr nonnull @_ZNSt12bad_weak_ptrD1Ev) #26
          to label %.noexc unwind label %58

.noexc:                                           ; preds = %_ZNSt16_Sp_counted_baseILN9__gnu_cxx12_Lock_policyE2EE23_M_add_ref_lock_nothrowEv.exit.i.i.i.i
  unreachable

20:                                               ; preds = %14
  %21 = load ptr, ptr %5, align 8, !noalias !36
  store ptr %21, ptr %3, align 8, !alias.scope !36
  invoke void @_ZN10open_spiel10kuhn_poker9KuhnStateC1ESt10shared_ptrIKNS_4GameEE(ptr noundef nonnull align 8 dereferenceable(120) %4, ptr noundef nonnull %3)
          to label %22 unwind label %60

22:                                               ; preds = %20
  store ptr %4, ptr %0, align 8
  %23 = load ptr, ptr %6, align 8
  %.not.i.i.i = icmp eq ptr %23, null
  br i1 %.not.i.i.i, label %_ZNSt10shared_ptrIKN10open_spiel4GameEED2Ev.exit, label %24

24:                                               ; preds = %22
  %25 = getelementptr inbounds nuw i8, ptr %23, i64 8
  %26 = load atomic i64, ptr %25 acquire, align 8
  %27 = icmp eq i64 %26, 4294967297
  %28 = trunc i64 %26 to i32
  br i1 %27, label %29, label %34

29:                                               ; preds = %24
  store i32 0, ptr %25, align 8
  %30 = getelementptr inbounds nuw i8, ptr %23, i64 12
  store i32 0, ptr %30, align 4
  %31 = load ptr, ptr %23, align 8
  %32 = getelementptr inbounds i8, ptr %31, i64 16
  %33 = load ptr, ptr %32, align 8
  call void %33(ptr noundef nonnull align 8 dereferenceable(16) %23) #27
  br label %_ZNSt16_Sp_counted_baseILN9__gnu_cxx12_Lock_policyE2EE24_M_release_last_use_coldEv.exit.sink.split.i.i.i.i

34:                                               ; preds = %24
  %35 = load i8, ptr @__libc_single_threaded, align 1
  %.not.i.i.i.i = icmp eq i8 %35, 0
  br i1 %.not.i.i.i.i, label %38, label %36

36:                                               ; preds = %34
  %37 = add nsw i32 %28, -1
  store i32 %37, ptr %25, align 4
  br label %40

38:                                               ; preds = %34
  %39 = atomicrmw volatile add ptr %25, i32 -1 acq_rel, align 4
  br label %40

40:                                               ; preds = %38, %36
  %.0.i.i.i.i = phi i32 [ %28, %36 ], [ %39, %38 ]
  %41 = icmp eq i32 %.0.i.i.i.i, 1
  br i1 %41, label %42, label %_ZNSt10shared_ptrIKN10open_spiel4GameEED2Ev.exit

42:                                               ; preds = %40
  %43 = load ptr, ptr %23, align 8
  %44 = getelementptr inbounds i8, ptr %43, i64 16
  %45 = load ptr, ptr %44, align 8
  call void %45(ptr noundef nonnull align 8 dereferenceable(16) %23) #27
  %46 = getelementptr inbounds nuw i8, ptr %23, i64 12
  %47 = load i8, ptr @__libc_single_threaded, align 1
  %.not.i.i.i.i.i.i = icmp eq i8 %47, 0
  br i1 %.not.i.i.i.i.i.i, label %51, label %48

48:                                               ; preds = %42
  %49 = load i32, ptr %46, align 4
  %50 = add nsw i32 %49, -1
  store i32 %50, ptr %46, align 4
  br label %53

51:                                               ; preds = %42
  %52 = atomicrmw volatile add ptr %46, i32 -1 acq_rel, align 4
  br label %53

53:                                               ; preds = %51, %48
  %.0.i.i.i.i.i.i = phi i32 [ %49, %48 ], [ %52, %51 ]
  %54 = icmp eq i32 %.0.i.i.i.i.i.i, 1
  br i1 %54, label %_ZNSt16_Sp_counted_baseILN9__gnu_cxx12_Lock_policyE2EE24_M_release_last_use_coldEv.exit.sink.split.i.i.i.i, label %_ZNSt10shared_ptrIKN10open_spiel4GameEED2Ev.exit

_ZNSt16_Sp_counted_baseILN9__gnu_cxx12_Lock_policyE2EE24_M_release_last_use_coldEv.exit.sink.split.i.i.i.i: ; preds = %53, %29
  %55 = load ptr, ptr %23, align 8
  %56 = getelementptr inbounds i8, ptr %55, i64 24
  %57 = load ptr, ptr %56, align 8
  call void %57(ptr noundef nonnull align 8 dereferenceable(16) %23) #27
  br label %_ZNSt10shared_ptrIKN10open_spiel4GameEED2Ev.exit

_ZNSt10shared_ptrIKN10open_spiel4GameEED2Ev.exit: ; preds = %22, %40, %53, %_ZNSt16_Sp_counted_baseILN9__gnu_cxx12_Lock_policyE2EE24_M_release_last_use_coldEv.exit.sink.split.i.i.i.i
  ret void

58:                                               ; preds = %_ZNSt16_Sp_counted_baseILN9__gnu_cxx12_Lock_policyE2EE23_M_add_ref_lock_nothrowEv.exit.i.i.i.i
  %59 = landingpad { ptr, i32 }
          cleanup
  br label %62

60:                                               ; preds = %20
  %61 = landingpad { ptr, i32 }
          cleanup
  call void @_ZNSt10shared_ptrIKN10open_spiel4GameEED2Ev(ptr noundef nonnull align 8 dereferenceable(16) %3) #27
  br label %62

62:                                               ; preds = %58, %60
  %.pn = phi { ptr, i32 } [ %61, %60 ], [ %59, %58 ]
  call void @_ZdlPvm(ptr noundef nonnull %4, i64 noundef 120) #30
  resume { ptr, i32 } %.pn
}